target datalayout = "e-m:e-p270:32:32-p271:32:32-p272:64:64-i64:64-i128:128-f80:128-n8:16:32:64-S128"
target triple = "x86_64-pc-linux-gnu"

; Function Attrs: nounwind uwtable
define internal i32 @fdt_nodename_eq_(ptr noundef %0, i32 noundef %1, ptr noundef %2, i32 noundef %3) #0 {
  %5 = alloca i32, align 4
  %6 = alloca ptr, align 8
  %7 = alloca i32, align 4
  %8 = alloca ptr, align 8
  %9 = alloca i32, align 4
  %10 = alloca i32, align 4
  %11 = alloca ptr, align 8
  %12 = alloca i32, align 4
  store ptr %0, ptr %6, align 8, !tbaa !3
  store i32 %1, ptr %7, align 4, !tbaa !7
  store ptr %2, ptr %8, align 8, !tbaa !13
  store i32 %3, ptr %9, align 4, !tbaa !7
  call void @llvm.lifetime.start.p0(i64 4, ptr %10) #6
  call void @llvm.lifetime.start.p0(i64 8, ptr %11) #6
  %13 = load ptr, ptr %6, align 8, !tbaa !3
  %14 = load i32, ptr %7, align 4, !tbaa !7
  %15 = call ptr @fdt_get_name(ptr noundef %13, i32 noundef %14, ptr noundef %10)
  store ptr %15, ptr %11, align 8, !tbaa !13
  %16 = load ptr, ptr %11, align 8, !tbaa !13
  %17 = icmp ne ptr %16, null
  br i1 %17, label %18, label %22

18:                                               ; preds = %4
  %19 = load i32, ptr %10, align 4, !tbaa !7
  %20 = load i32, ptr %9, align 4, !tbaa !7
  %21 = icmp slt i32 %19, %20
  br i1 %21, label %22, label %23

22:                                               ; preds = %18, %4
  store i32 0, ptr %5, align 4
  store i32 1, ptr %12, align 4
  br label %56

23:                                               ; preds = %18
  %24 = load ptr, ptr %11, align 8, !tbaa !13
  %25 = load ptr, ptr %8, align 8, !tbaa !13
  %26 = load i32, ptr %9, align 4, !tbaa !7
  %27 = sext i32 %26 to i64
  %28 = call i32 @memcmp(ptr noundef %24, ptr noundef %25, i64 noundef %27) #7
  %29 = icmp ne i32 %28, 0
  br i1 %29, label %30, label %31

30:                                               ; preds = %23
  store i32 0, ptr %5, align 4
  store i32 1, ptr %12, align 4
  br label %56

31:                                               ; preds = %23
  %32 = load ptr, ptr %11, align 8, !tbaa !13
  %33 = load i32, ptr %9, align 4, !tbaa !7
  %34 = sext i32 %33 to i64
  %35 = getelementptr inbounds i8, ptr %32, i64 %34
  %36 = load i8, ptr %35, align 1, !tbaa !15
  %37 = sext i8 %36 to i32
  %38 = icmp eq i32 %37, 0
  br i1 %38, label %39, label %40

39:                                               ; preds = %31
  store i32 1, ptr %5, align 4
  store i32 1, ptr %12, align 4
  br label %56

40:                                               ; preds = %31
  %41 = load ptr, ptr %8, align 8, !tbaa !13
  %42 = load i32, ptr %9, align 4, !tbaa !7
  %43 = sext i32 %42 to i64
  %44 = call ptr @memchr(ptr noundef %41, i32 noundef 64, i64 noundef %43) #7
  %45 = icmp ne ptr %44, null
  br i1 %45, label %55, label %46

46:                                               ; preds = %40
  %47 = load ptr, ptr %11, align 8, !tbaa !13
  %48 = load i32, ptr %9, align 4, !tbaa !7
  %49 = sext i32 %48 to i64
  %50 = getelementptr inbounds i8, ptr %47, i64 %49
  %51 = load i8, ptr %50, align 1, !tbaa !15
  %52 = sext i8 %51 to i32
  %53 = icmp eq i32 %52, 64
  br i1 %53, label %54, label %55

54:                                               ; preds = %46
  store i32 1, ptr %5, align 4
  store i32 1, ptr %12, align 4
  br label %56

55:                                               ; preds = %46, %40
  store i32 0, ptr %5, align 4
  store i32 1, ptr %12, align 4
  br label %56

56:                                               ; preds = %55, %54, %39, %30, %22
  call void @llvm.lifetime.end.p0(i64 8, ptr %11) #6
  call void @llvm.lifetime.end.p0(i64 4, ptr %10) #6
  %57 = load i32, ptr %5, align 4
  ret i32 %57
}

; Function Attrs: nounwind uwtable
define i32 @fdt_subnode_offset_namelen(ptr noundef %0, i32 noundef %1, ptr noundef %2, i32 noundef %3) #0 {
  %5 = alloca i32, align 4
  %6 = alloca ptr, align 8
  %7 = alloca i32, align 4
  %8 = alloca ptr, align 8
  %9 = alloca i32, align 4
  %10 = alloca i32, align 4
  %11 = alloca i32, align 4
  %12 = alloca i32, align 4
  store ptr %0, ptr %6, align 8, !tbaa !3
  store i32 %1, ptr %7, align 4, !tbaa !7
  store ptr %2, ptr %8, align 8, !tbaa !13
  store i32 %3, ptr %9, align 4, !tbaa !7
  call void @llvm.lifetime.start.p0(i64 4, ptr %10) #6
  call void @llvm.lifetime.start.p0(i64 4, ptr %11) #6
  %13 = load ptr, ptr %6, align 8, !tbaa !3
  %14 = call i32 @fdt_ro_probe_(ptr noundef %13)
  store i32 %14, ptr %11, align 4, !tbaa !7
  %15 = icmp slt i32 %14, 0
  br i1 %15, label %16, label %18

16:                                               ; preds = %4
  %17 = load i32, ptr %11, align 4, !tbaa !7
  store i32 %17, ptr %5, align 4
  store i32 1, ptr %12, align 4
  br label %19

18:                                               ; preds = %4
  store i32 0, ptr %12, align 4
  br label %19

19:                                               ; preds = %18, %16
  call void @llvm.lifetime.end.p0(i64 4, ptr %11) #6
  %20 = load i32, ptr %12, align 4
  switch i32 %20, label %53 [
    i32 0, label %21
  ]

21:                                               ; preds = %19
  store i32 0, ptr %10, align 4, !tbaa !7
  br label %22

22:                                               ; preds = %43, %21
  %23 = load i32, ptr %7, align 4, !tbaa !7
  %24 = icmp sge i32 %23, 0
  br i1 %24, label %25, label %28

25:                                               ; preds = %22
  %26 = load i32, ptr %10, align 4, !tbaa !7
  %27 = icmp sge i32 %26, 0
  br label %28

28:                                               ; preds = %25, %22
  %29 = phi i1 [ false, %22 ], [ %27, %25 ]
  br i1 %29, label %30, label %47

30:                                               ; preds = %28
  %31 = load i32, ptr %10, align 4, !tbaa !7
  %32 = icmp eq i32 %31, 1
  br i1 %32, label %33, label %42

33:                                               ; preds = %30
  %34 = load ptr, ptr %6, align 8, !tbaa !3
  %35 = load i32, ptr %7, align 4, !tbaa !7
  %36 = load ptr, ptr %8, align 8, !tbaa !13
  %37 = load i32, ptr %9, align 4, !tbaa !7
  %38 = call i32 @fdt_nodename_eq_(ptr noundef %34, i32 noundef %35, ptr noundef %36, i32 noundef %37)
  %39 = icmp ne i32 %38, 0
  br i1 %39, label %40, label %42

40:                                               ; preds = %33
  %41 = load i32, ptr %7, align 4, !tbaa !7
  store i32 %41, ptr %5, align 4
  store i32 1, ptr %12, align 4
  br label %53

42:                                               ; preds = %33, %30
  br label %43

43:                                               ; preds = %42
  %44 = load ptr, ptr %6, align 8, !tbaa !3
  %45 = load i32, ptr %7, align 4, !tbaa !7
  %46 = call i32 @fdt_next_node(ptr noundef %44, i32 noundef %45, ptr noundef %10)
  store i32 %46, ptr %7, align 4, !tbaa !7
  br label %22, !llvm.loop !22

47:                                               ; preds = %28
  %48 = load i32, ptr %10, align 4, !tbaa !7
  %49 = icmp slt i32 %48, 0
  br i1 %49, label %50, label %51

50:                                               ; preds = %47
  store i32 -1, ptr %5, align 4
  store i32 1, ptr %12, align 4
  br label %53

51:                                               ; preds = %47
  %52 = load i32, ptr %7, align 4, !tbaa !7
  store i32 %52, ptr %5, align 4
  store i32 1, ptr %12, align 4
  br label %53

53:                                               ; preds = %51, %50, %40, %19
  call void @llvm.lifetime.end.p0(i64 4, ptr %10) #6
  %54 = load i32, ptr %5, align 4
  ret i32 %54
}