; Function Attrs: nounwind uwtable
define i32 @fdt_subnode_offset_namelen(ptr noundef %0, i32 noundef %1, ptr noundef readonly %2, i32 noundef %3) local_unnamed_addr #0 {
  %5 = alloca i32, align 4
  %6 = alloca i32, align 4
  call void @llvm.lifetime.start.p0(i64 4, ptr nonnull %6) #9
  %7 = tail call i32 @fdt_ro_probe_(ptr noundef %0) #9
  %8 = icmp sgt i32 %7, -1
  br i1 %8, label %9, label %.loopexit

9:                                                ; preds = %4
  store i32 0, ptr %6, align 4, !tbaa !6
  %10 = icmp sgt i32 %1, -1
  br i1 %10, label %.lr.ph, label %.loopexit

.lr.ph:                                           ; preds = %9
  %11 = sext i32 %3 to i64
  br label %12

12:                                               ; preds = %.lr.ph, %26
  %.01325 = phi i32 [ %1, %.lr.ph ], [ %27, %26 ]
  %13 = phi i32 [ 0, %.lr.ph ], [ %.pr, %26 ]
  %14 = icmp eq i32 %13, 1
  br i1 %14, label %15, label %26

15:                                               ; preds = %12
  call void @llvm.lifetime.start.p0(i64 4, ptr nonnull %5) #9
  %16 = call ptr @fdt_get_name(ptr noundef %0, i32 noundef range(i32 0, -2147483648) %.01325, ptr noundef nonnull %5)
  %.not.i = icmp eq ptr %16, null
  %17 = load i32, ptr %5, align 4
  %18 = icmp slt i32 %17, %3
  %or.cond.i = select i1 %.not.i, i1 true, i1 %18
  br i1 %or.cond.i, label %fdt_nodename_eq_.exit.thread, label %19

19:                                               ; preds = %15
  %bcmp.i = call i32 @bcmp(ptr nonnull %16, ptr readonly %2, i64 %11)
  %.not16.i = icmp eq i32 %bcmp.i, 0
  br i1 %.not16.i, label %20, label %fdt_nodename_eq_.exit.thread

20:                                               ; preds = %19
  %21 = getelementptr inbounds i8, ptr %16, i64 %11
  %22 = load i8, ptr %21, align 1, !tbaa !3
  %23 = icmp eq i8 %22, 0
  br i1 %23, label %fdt_nodename_eq_.exit.thread17, label %fdt_nodename_eq_.exit

fdt_nodename_eq_.exit.thread17:                   ; preds = %20
  call void @llvm.lifetime.end.p0(i64 4, ptr nonnull %5) #9
  br label %.loopexit

fdt_nodename_eq_.exit.thread:                     ; preds = %15, %19
  call void @llvm.lifetime.end.p0(i64 4, ptr nonnull %5) #9
  br label %26

fdt_nodename_eq_.exit:                            ; preds = %20
  %24 = call ptr @memchr(ptr noundef readonly %2, i32 noundef 64, i64 noundef %11) #10
  %.not17.i = icmp ne ptr %24, null
  %25 = icmp ne i8 %22, 64
  %or.cond19.i.not = or i1 %25, %.not17.i
  call void @llvm.lifetime.end.p0(i64 4, ptr nonnull %5) #9
  br i1 %or.cond19.i.not, label %26, label %.loopexit

26:                                               ; preds = %fdt_nodename_eq_.exit.thread, %12, %fdt_nodename_eq_.exit
  %27 = call i32 @fdt_next_node(ptr noundef %0, i32 noundef %.01325, ptr noundef nonnull %6) #9
  %.pr = load i32, ptr %6, align 4
  %28 = icmp sgt i32 %27, -1
  %29 = icmp sgt i32 %.pr, -1
  %30 = select i1 %28, i1 %29, i1 false
  br i1 %30, label %12, label %._crit_edge.loopexit, !llvm.loop !12

._crit_edge.loopexit:                             ; preds = %26
  %31 = icmp sgt i32 %.pr, -1
  %32 = select i1 %31, i32 %27, i32 -1
  br label %.loopexit

.loopexit:                                        ; preds = %fdt_nodename_eq_.exit, %9, %._crit_edge.loopexit, %fdt_nodename_eq_.exit.thread17, %4
  %.1 = phi i32 [ %7, %4 ], [ %.01325, %fdt_nodename_eq_.exit.thread17 ], [ %1, %9 ], [ %32, %._crit_edge.loopexit ], [ %.01325, %fdt_nodename_eq_.exit ]
  call void @llvm.lifetime.end.p0(i64 4, ptr nonnull %6) #9
  ret i32 %.1
}